target datalayout = "e-m:e-p270:32:32-p271:32:32-p272:64:64-i64:64-i128:128-f80:128-n8:16:32:64-S128"
target triple = "x86_64-pc-linux-gnu"

%struct.ssl_ecdh_ctx_st = type { ptr, ptr }

; Function Attrs: nounwind uwtable
define internal i32 @ssl_dhe_compute_secret(ptr noundef %0, ptr noundef %1, ptr noundef %2, ptr noundef %3, ptr noundef %4, i64 noundef %5) #0 {
  %7 = alloca i32, align 4
  %8 = alloca ptr, align 8
  %9 = alloca ptr, align 8
  %10 = alloca ptr, align 8
  %11 = alloca ptr, align 8
  %12 = alloca ptr, align 8
  %13 = alloca i64, align 8
  %14 = alloca ptr, align 8
  %15 = alloca i32, align 4
  %16 = alloca ptr, align 8
  %17 = alloca ptr, align 8
  %18 = alloca i32, align 4
  store ptr %0, ptr %8, align 8, !tbaa !25
  store ptr %1, ptr %9, align 8, !tbaa !36
  store ptr %2, ptr %10, align 8, !tbaa !38
  store ptr %3, ptr %11, align 8, !tbaa !40
  store ptr %4, ptr %12, align 8, !tbaa !40
  store i64 %5, ptr %13, align 8, !tbaa !13
  call void @llvm.lifetime.start.p0(i64 8, ptr %14) #5
  %19 = load ptr, ptr %8, align 8, !tbaa !25
  %20 = getelementptr inbounds nuw %struct.ssl_ecdh_ctx_st, ptr %19, i32 0, i32 1
  %21 = load ptr, ptr %20, align 8, !tbaa !30
  store ptr %21, ptr %14, align 8, !tbaa !31
  %22 = load ptr, ptr %11, align 8, !tbaa !40
  store i8 80, ptr %22, align 1, !tbaa !52
  call void @llvm.lifetime.start.p0(i64 4, ptr %15) #5
  store i32 0, ptr %15, align 4, !tbaa !22
  call void @llvm.lifetime.start.p0(i64 8, ptr %16) #5
  store ptr null, ptr %16, align 8, !tbaa !40
  call void @llvm.lifetime.start.p0(i64 8, ptr %17) #5
  %23 = load ptr, ptr %12, align 8, !tbaa !40
  %24 = load i64, ptr %13, align 8, !tbaa !13
  %25 = call ptr @BN_bin2bn(ptr noundef %23, i64 noundef %24, ptr noundef null)
  store ptr %25, ptr %17, align 8, !tbaa !43
  %26 = load ptr, ptr %17, align 8, !tbaa !43
  %27 = icmp eq ptr %26, null
  br i1 %27, label %28, label %29

28:                                               ; preds = %6
  br label %52

29:                                               ; preds = %6
  %30 = load ptr, ptr %14, align 8, !tbaa !31
  %31 = call i32 @DH_size(ptr noundef %30)
  %32 = sext i32 %31 to i64
  %33 = call noalias ptr @malloc(i64 noundef %32) #6
  store ptr %33, ptr %16, align 8, !tbaa !40
  %34 = load ptr, ptr %16, align 8, !tbaa !40
  %35 = icmp eq ptr %34, null
  br i1 %35, label %36, label %37

36:                                               ; preds = %29
  br label %52

37:                                               ; preds = %29
  %38 = load ptr, ptr %16, align 8, !tbaa !40
  %39 = load ptr, ptr %17, align 8, !tbaa !43
  %40 = load ptr, ptr %14, align 8, !tbaa !31
  %41 = call i32 @DH_compute_key(ptr noundef %38, ptr noundef %39, ptr noundef %40)
  store i32 %41, ptr %15, align 4, !tbaa !22
  %42 = load i32, ptr %15, align 4, !tbaa !22
  %43 = icmp sle i32 %42, 0
  br i1 %43, label %44, label %45

44:                                               ; preds = %37
  br label %52

45:                                               ; preds = %37
  %46 = load ptr, ptr %16, align 8, !tbaa !40
  %47 = load ptr, ptr %9, align 8, !tbaa !36
  store ptr %46, ptr %47, align 8, !tbaa !40
  %48 = load i32, ptr %15, align 4, !tbaa !22
  %49 = sext i32 %48 to i64
  %50 = load ptr, ptr %10, align 8, !tbaa !38
  store i64 %49, ptr %50, align 8, !tbaa !13
  %51 = load ptr, ptr %17, align 8, !tbaa !43
  call void @BN_free(ptr noundef %51)
  store i32 1, ptr %7, align 4
  store i32 1, ptr %18, align 4
  br label %62

52:                                               ; preds = %44, %36, %28
  %53 = load i32, ptr %15, align 4, !tbaa !22
  %54 = icmp sgt i32 %53, 0
  br i1 %54, label %55, label %59

55:                                               ; preds = %52
  %56 = load ptr, ptr %16, align 8, !tbaa !40
  %57 = load i32, ptr %15, align 4, !tbaa !22
  %58 = sext i32 %57 to i64
  call void @OPENSSL_cleanse(ptr noundef %56, i64 noundef %58)
  br label %59

59:                                               ; preds = %55, %52
  %60 = load ptr, ptr %16, align 8, !tbaa !40
  call void @free(ptr noundef %60) #5
  %61 = load ptr, ptr %17, align 8, !tbaa !43
  call void @BN_free(ptr noundef %61)
  store i32 0, ptr %7, align 4
  store i32 1, ptr %18, align 4
  br label %62

62:                                               ; preds = %59, %45
  call void @llvm.lifetime.end.p0(i64 8, ptr %17) #5
  call void @llvm.lifetime.end.p0(i64 8, ptr %16) #5
  call void @llvm.lifetime.end.p0(i64 4, ptr %15) #5
  call void @llvm.lifetime.end.p0(i64 8, ptr %14) #5
  %63 = load i32, ptr %7, align 4
  ret i32 %63
}