; Function Attrs: nounwind uwtable
define internal range(i32 0, 2) i32 @ssl_dhe_compute_secret(ptr noundef readonly captures(none) %0, ptr noundef writeonly captures(none) %1, ptr noundef writeonly captures(none) %2, ptr noundef writeonly captures(none) initializes((0, 1)) %3, ptr noundef %4, i64 noundef %5) #3 {
  %7 = getelementptr inbounds nuw i8, ptr %0, i64 8
  %8 = load ptr, ptr %7, align 8, !tbaa !22
  store i8 80, ptr %3, align 1, !tbaa !26
  %9 = tail call ptr @BN_bin2bn(ptr noundef %4, i64 noundef %5, ptr noundef null) #8
  %10 = icmp eq ptr %9, null
  br i1 %10, label %21, label %11

11:                                               ; preds = %6
  %12 = tail call i32 @DH_size(ptr noundef %8) #8
  %13 = sext i32 %12 to i64
  %14 = tail call noalias ptr @malloc(i64 noundef %13) #9
  %15 = icmp eq ptr %14, null
  br i1 %15, label %21, label %16

16:                                               ; preds = %11
  %17 = tail call i32 @DH_compute_key(ptr noundef nonnull %14, ptr noundef nonnull %9, ptr noundef %8) #8
  %18 = icmp slt i32 %17, 1
  br i1 %18, label %21, label %19

19:                                               ; preds = %16
  store ptr %14, ptr %1, align 8, !tbaa !27
  %20 = zext nneg i32 %17 to i64
  store i64 %20, ptr %2, align 8, !tbaa !29
  br label %22

21:                                               ; preds = %6, %11, %16
  %.021 = phi ptr [ null, %6 ], [ null, %11 ], [ %14, %16 ]
  tail call void @free(ptr noundef %.021) #8
  br label %22

22:                                               ; preds = %21, %19
  %.0 = phi i32 [ 0, %21 ], [ 1, %19 ]
  tail call void @BN_free(ptr noundef %9) #8
  ret i32 %.0
}